; ModuleID = 'source-C-CXX/35/1095.c'
source_filename = "source-C-CXX/35/1095.c"
target datalayout = "e-m:e-p270:32:32-p271:32:32-p272:64:64-i64:64-f80:128-n8:16:32:64-S128"
target triple = "x86_64-pc-linux-gnu"

@.str = private unnamed_addr constant [6 x i8] c"%s %s\00", align 1
@.str.1 = private unnamed_addr constant [4 x i8] c"YES\00", align 1
@.str.2 = private unnamed_addr constant [3 x i8] c"NO\00", align 1

; Function Attrs: nofree nounwind sspstrong uwtable
define dso_local i32 @main() local_unnamed_addr #0 {
  %1 = alloca [2000 x i8], align 16
  %2 = alloca [2000 x i8], align 16
  %3 = getelementptr inbounds [2000 x i8], [2000 x i8]* %1, i64 0, i64 0
  call void @llvm.lifetime.start.p0i8(i64 2000, i8* nonnull %3) #4
  %4 = getelementptr inbounds [2000 x i8], [2000 x i8]* %2, i64 0, i64 0
  call void @llvm.lifetime.start.p0i8(i64 2000, i8* nonnull %4) #4
  %5 = call i32 (i8*, ...) @__isoc99_scanf(i8* getelementptr inbounds ([6 x i8], [6 x i8]* @.str, i64 0, i64 0), i8* nonnull %4, i8* nonnull %3)
  %6 = call i64 @strlen(i8* noundef nonnull %4) #5
  %7 = call i64 @strlen(i8* noundef nonnull %3) #5
  %8 = icmp eq i64 %6, %7
  br i1 %8, label %9, label %39

9:                                                ; preds = %0
  %10 = load i8, i8* %4, align 16, !tbaa !5
  %11 = icmp eq i8 %10, 0
  br i1 %11, label %35, label %12

12:                                               ; preds = %9, %30
  %13 = phi i64 [ %31, %30 ], [ 0, %9 ]
  %14 = phi i8 [ %33, %30 ], [ %10, %9 ]
  %15 = getelementptr inbounds [2000 x i8], [2000 x i8]* %1, i64 0, i64 %13
  %16 = load i8, i8* %15, align 1, !tbaa !5
  %17 = icmp eq i8 %16, 0
  br i1 %17, label %30, label %18

18:                                               ; preds = %12, %25
  %19 = phi i64 [ %26, %25 ], [ %13, %12 ]
  %20 = phi i8 [ %28, %25 ], [ %16, %12 ]
  %21 = icmp eq i8 %14, %20
  br i1 %21, label %22, label %25

22:                                               ; preds = %18
  %23 = and i64 %19, 4294967295
  %24 = getelementptr inbounds [2000 x i8], [2000 x i8]* %1, i64 0, i64 %23
  store i8 %16, i8* %24, align 1, !tbaa !5
  store i8 %14, i8* %15, align 1, !tbaa !5
  br label %30

25:                                               ; preds = %18
  %26 = add nuw i64 %19, 1
  %27 = getelementptr inbounds [2000 x i8], [2000 x i8]* %1, i64 0, i64 %26
  %28 = load i8, i8* %27, align 1, !tbaa !5
  %29 = icmp eq i8 %28, 0
  br i1 %29, label %30, label %18, !llvm.loop !8

30:                                               ; preds = %25, %12, %22
  %31 = add nuw i64 %13, 1
  %32 = getelementptr inbounds [2000 x i8], [2000 x i8]* %2, i64 0, i64 %31
  %33 = load i8, i8* %32, align 1, !tbaa !5
  %34 = icmp eq i8 %33, 0
  br i1 %34, label %35, label %12, !llvm.loop !10

35:                                               ; preds = %30, %9
  %36 = call i32 @strcmp(i8* noundef nonnull %4, i8* noundef nonnull %3) #5
  %37 = icmp eq i32 %36, 0
  %38 = select i1 %37, i8* getelementptr inbounds ([4 x i8], [4 x i8]* @.str.1, i64 0, i64 0), i8* getelementptr inbounds ([3 x i8], [3 x i8]* @.str.2, i64 0, i64 0)
  br label %39

39:                                               ; preds = %0, %35
  %40 = phi i8* [ %38, %35 ], [ getelementptr inbounds ([3 x i8], [3 x i8]* @.str.2, i64 0, i64 0), %0 ]
  %41 = call i32 (i8*, ...) @printf(i8* nonnull dereferenceable(1) %40)
  call void @llvm.lifetime.end.p0i8(i64 2000, i8* nonnull %4) #4
  call void @llvm.lifetime.end.p0i8(i64 2000, i8* nonnull %3) #4
  ret i32 0
}

; Function Attrs: argmemonly mustprogress nofree nosync nounwind willreturn
declare void @llvm.lifetime.start.p0i8(i64 immarg, i8* nocapture) #1

; Function Attrs: nofree nounwind
declare noundef i32 @__isoc99_scanf(i8* nocapture noundef readonly, ...) local_unnamed_addr #2

; Function Attrs: argmemonly mustprogress nofree nounwind readonly willreturn
declare i64 @strlen(i8* nocapture) local_unnamed_addr #3

; Function Attrs: argmemonly mustprogress nofree nounwind readonly willreturn
declare i32 @strcmp(i8* nocapture, i8* nocapture) local_unnamed_addr #3

; Function Attrs: nofree nounwind
declare noundef i32 @printf(i8* nocapture noundef readonly, ...) local_unnamed_addr #2

; Function Attrs: argmemonly mustprogress nofree nosync nounwind willreturn
declare void @llvm.lifetime.end.p0i8(i64 immarg, i8* nocapture) #1


!llvm.module.flags = !{!0, !1, !2, !3}
!llvm.ident = !{!4}

!0 = !{i32 1, !"wchar_size", i32 4}
!1 = !{i32 7, !"PIC Level", i32 2}
!2 = !{i32 7, !"PIE Level", i32 2}
!3 = !{i32 7, !"uwtable", i32 1}
!4 = !{!"clang version 13.0.0"}
!5 = !{!6, !6, i64 0}
!6 = !{!"omnipotent char", !7, i64 0}
!7 = !{!"Simple C/C++ TBAA"}
!8 = distinct !{!8, !9}
!9 = !{!"llvm.loop.mustprogress"}
!10 = distinct !{!10, !9}
